target datalayout = "e-m:e-p270:32:32-p271:32:32-p272:64:64-i64:64-i128:128-f80:128-n8:16:32:64-S128"
target triple = "x86_64-pc-linux-gnu"

%"class.llvm::SmallVectorBase" = type { ptr, i32, i32 }
%"class.llvm::DIEValueList" = type { %"class.llvm::IntrusiveBackList" }
%"class.llvm::IntrusiveBackList" = type { %"struct.llvm::IntrusiveBackListBase" }
%"struct.llvm::IntrusiveBackListBase" = type { ptr }
%"class.llvm::AsmPrinter" = type <{ %"class.llvm::MachineFunctionPass", ptr, ptr, ptr, %"class.std::unique_ptr", ptr, ptr, ptr, ptr, ptr, ptr, ptr, ptr, ptr, %"class.llvm::MapVector", %"class.llvm::MapVector.7", ptr, %"class.llvm::DenseMap.16", ptr, %"class.std::unique_ptr.19", %"class.llvm::DenseMap.27", i8, [7 x i8], %"class.std::unique_ptr.30", %"class.llvm::DenseMap.38", ptr, ptr, %"class.llvm::SmallVector.41", i64, %"class.llvm::SmallVector.46", i64, %"class.llvm::StackMaps", %"class.std::unique_ptr.66", %"class.std::unique_ptr.74", ptr, %"class.std::unique_ptr.82", i32, i8, i8, i8, i8, %"class.llvm::SmallVector.90", ptr, i32, i32, i8, [7 x i8] }>
%"class.llvm::MachineFunctionPass" = type { %"class.llvm::FunctionPass.base", %"class.llvm::MachineFunctionProperties", %"class.llvm::MachineFunctionProperties", %"class.llvm::MachineFunctionProperties" }
%"class.llvm::FunctionPass.base" = type { %"class.llvm::Pass.base" }
%"class.llvm::Pass.base" = type <{ ptr, ptr, ptr, i32 }>
%"class.llvm::MachineFunctionProperties" = type { %"class.std::bitset" }
%"class.std::bitset" = type { %"struct.std::_Base_bitset" }
%"struct.std::_Base_bitset" = type { i64 }
%"class.std::unique_ptr" = type { %"struct.std::__uniq_ptr_data" }
%"struct.std::__uniq_ptr_data" = type { %"class.std::__uniq_ptr_impl" }
%"class.std::__uniq_ptr_impl" = type { %"class.std::tuple" }
%"class.std::tuple" = type { %"struct.std::_Tuple_impl" }
%"struct.std::_Tuple_impl" = type { %"struct.std::_Head_base.1" }
%"struct.std::_Head_base.1" = type { ptr }
%"class.llvm::MapVector" = type { %"class.llvm::DenseMap", %"class.llvm::SmallVector.2" }
%"class.llvm::DenseMap" = type <{ ptr, i32, i32, i32, [4 x i8] }>
%"class.llvm::SmallVector.2" = type { %"class.llvm::SmallVectorImpl.3" }
%"class.llvm::SmallVectorImpl.3" = type { %"class.llvm::SmallVectorTemplateBase.4" }
%"class.llvm::SmallVectorTemplateBase.4" = type { %"class.llvm::SmallVectorTemplateCommon.5" }
%"class.llvm::SmallVectorTemplateCommon.5" = type { %"class.llvm::SmallVectorBase" }
%"class.llvm::MapVector.7" = type { %"class.llvm::DenseMap.8", %"class.llvm::SmallVector.11" }
%"class.llvm::DenseMap.8" = type <{ ptr, i32, i32, i32, [4 x i8] }>
%"class.llvm::SmallVector.11" = type { %"class.llvm::SmallVectorImpl.12" }
%"class.llvm::SmallVectorImpl.12" = type { %"class.llvm::SmallVectorTemplateBase.13" }
%"class.llvm::SmallVectorTemplateBase.13" = type { %"class.llvm::SmallVectorTemplateCommon.14" }
%"class.llvm::SmallVectorTemplateCommon.14" = type { %"class.llvm::SmallVectorBase" }
%"class.llvm::DenseMap.16" = type <{ ptr, i32, i32, i32, [4 x i8] }>
%"class.std::unique_ptr.19" = type { %"struct.std::__uniq_ptr_data.20" }
%"struct.std::__uniq_ptr_data.20" = type { %"class.std::__uniq_ptr_impl.21" }
%"class.std::__uniq_ptr_impl.21" = type { %"class.std::tuple.22" }
%"class.std::tuple.22" = type { %"struct.std::_Tuple_impl.23" }
%"struct.std::_Tuple_impl.23" = type { %"struct.std::_Head_base.26" }
%"struct.std::_Head_base.26" = type { ptr }
%"class.llvm::DenseMap.27" = type <{ ptr, i32, i32, i32, [4 x i8] }>
%"class.std::unique_ptr.30" = type { %"struct.std::__uniq_ptr_data.31" }
%"struct.std::__uniq_ptr_data.31" = type { %"class.std::__uniq_ptr_impl.32" }
%"class.std::__uniq_ptr_impl.32" = type { %"class.std::tuple.33" }
%"class.std::tuple.33" = type { %"struct.std::_Tuple_impl.34" }
%"struct.std::_Tuple_impl.34" = type { %"struct.std::_Head_base.37" }
%"struct.std::_Head_base.37" = type { ptr }
%"class.llvm::DenseMap.38" = type <{ ptr, i32, i32, i32, [4 x i8] }>
%"class.llvm::SmallVector.41" = type { %"class.llvm::SmallVectorImpl.42", %"struct.llvm::SmallVectorStorage.45" }
%"class.llvm::SmallVectorImpl.42" = type { %"class.llvm::SmallVectorTemplateBase.43" }
%"class.llvm::SmallVectorTemplateBase.43" = type { %"class.llvm::SmallVectorTemplateCommon.44" }
%"class.llvm::SmallVectorTemplateCommon.44" = type { %"class.llvm::SmallVectorBase" }
%"struct.llvm::SmallVectorStorage.45" = type { [16 x i8] }
%"class.llvm::SmallVector.46" = type { %"class.llvm::SmallVectorImpl.47", %"struct.llvm::SmallVectorStorage.50" }
%"class.llvm::SmallVectorImpl.47" = type { %"class.llvm::SmallVectorTemplateBase.48" }
%"class.llvm::SmallVectorTemplateBase.48" = type { %"class.llvm::SmallVectorTemplateCommon.49" }
%"class.llvm::SmallVectorTemplateCommon.49" = type { %"class.llvm::SmallVectorBase" }
%"struct.llvm::SmallVectorStorage.50" = type { [8 x i8] }
%"class.llvm::StackMaps" = type { ptr, %"class.std::vector", %"class.llvm::MapVector.51", %"class.llvm::MapVector.60" }
%"class.std::vector" = type { %"struct.std::_Vector_base" }
%"struct.std::_Vector_base" = type { %"struct.std::_Vector_base<llvm::StackMaps::CallsiteInfo, std::allocator<llvm::StackMaps::CallsiteInfo>>::_Vector_impl" }
%"struct.std::_Vector_base<llvm::StackMaps::CallsiteInfo, std::allocator<llvm::StackMaps::CallsiteInfo>>::_Vector_impl" = type { %"struct.std::_Vector_base<llvm::StackMaps::CallsiteInfo, std::allocator<llvm::StackMaps::CallsiteInfo>>::_Vector_impl_data" }
%"struct.std::_Vector_base<llvm::StackMaps::CallsiteInfo, std::allocator<llvm::StackMaps::CallsiteInfo>>::_Vector_impl_data" = type { ptr, ptr, ptr }
%"class.llvm::MapVector.51" = type { %"class.llvm::DenseMap.52", %"class.llvm::SmallVector.55" }
%"class.llvm::DenseMap.52" = type <{ ptr, i32, i32, i32, [4 x i8] }>
%"class.llvm::SmallVector.55" = type { %"class.llvm::SmallVectorImpl.56" }
%"class.llvm::SmallVectorImpl.56" = type { %"class.llvm::SmallVectorTemplateBase.57" }
%"class.llvm::SmallVectorTemplateBase.57" = type { %"class.llvm::SmallVectorTemplateCommon.58" }
%"class.llvm::SmallVectorTemplateCommon.58" = type { %"class.llvm::SmallVectorBase" }
%"class.llvm::MapVector.60" = type { %"class.llvm::DenseMap.8", %"class.llvm::SmallVector.61" }
%"class.llvm::SmallVector.61" = type { %"class.llvm::SmallVectorImpl.62" }
%"class.llvm::SmallVectorImpl.62" = type { %"class.llvm::SmallVectorTemplateBase.63" }
%"class.llvm::SmallVectorTemplateBase.63" = type { %"class.llvm::SmallVectorTemplateCommon.64" }
%"class.llvm::SmallVectorTemplateCommon.64" = type { %"class.llvm::SmallVectorBase" }
%"class.std::unique_ptr.66" = type { %"struct.std::__uniq_ptr_data.67" }
%"struct.std::__uniq_ptr_data.67" = type { %"class.std::__uniq_ptr_impl.68" }
%"class.std::__uniq_ptr_impl.68" = type { %"class.std::tuple.69" }
%"class.std::tuple.69" = type { %"struct.std::_Tuple_impl.70" }
%"struct.std::_Tuple_impl.70" = type { %"struct.std::_Head_base.73" }
%"struct.std::_Head_base.73" = type { ptr }
%"class.std::unique_ptr.74" = type { %"struct.std::__uniq_ptr_data.75" }
%"struct.std::__uniq_ptr_data.75" = type { %"class.std::__uniq_ptr_impl.76" }
%"class.std::__uniq_ptr_impl.76" = type { %"class.std::tuple.77" }
%"class.std::tuple.77" = type { %"struct.std::_Tuple_impl.78" }
%"struct.std::_Tuple_impl.78" = type { %"struct.std::_Head_base.81" }
%"struct.std::_Head_base.81" = type { ptr }
%"class.std::unique_ptr.82" = type { %"struct.std::__uniq_ptr_data.83" }
%"struct.std::__uniq_ptr_data.83" = type { %"class.std::__uniq_ptr_impl.84" }
%"class.std::__uniq_ptr_impl.84" = type { %"class.std::tuple.85" }
%"class.std::tuple.85" = type { %"struct.std::_Tuple_impl.86" }
%"struct.std::_Tuple_impl.86" = type { %"struct.std::_Head_base.89" }
%"struct.std::_Head_base.89" = type { ptr }
%"class.llvm::SmallVector.90" = type { %"class.llvm::SmallVectorImpl.91", %"struct.llvm::SmallVectorStorage.94" }
%"class.llvm::SmallVectorImpl.91" = type { %"class.llvm::SmallVectorTemplateBase.92" }
%"class.llvm::SmallVectorTemplateBase.92" = type { %"class.llvm::SmallVectorTemplateCommon.93" }
%"class.llvm::SmallVectorTemplateCommon.93" = type { %"class.llvm::SmallVectorBase" }
%"struct.llvm::SmallVectorStorage.94" = type { [160 x i8] }
%"class.llvm::DwarfUnit" = type { %"class.llvm::DIEUnit", i32, ptr, %"class.llvm::BumpPtrAllocatorImpl", ptr, ptr, ptr, ptr, ptr, ptr, %"class.llvm::DenseMap.111", %"class.std::vector.114", %"class.std::vector.119", %"class.llvm::DenseMap.124" }
%"class.llvm::DIEUnit" = type { ptr, %"class.llvm::DIE", ptr, i64 }
%"class.llvm::DIE" = type { %"struct.llvm::IntrusiveBackListNode", %"class.llvm::DIEValueList", i32, i32, i32, i16, i8, %"class.llvm::IntrusiveBackList.95", %"class.llvm::PointerUnion" }
%"struct.llvm::IntrusiveBackListNode" = type { %"class.llvm::PointerIntPair" }
%"class.llvm::PointerIntPair" = type { %"struct.llvm::detail::PunnedPointer" }
%"struct.llvm::detail::PunnedPointer" = type { [8 x i8] }
%"class.llvm::IntrusiveBackList.95" = type { %"struct.llvm::IntrusiveBackListBase" }
%"class.llvm::PointerUnion" = type { %"class.llvm::pointer_union_detail::PointerUnionMembers" }
%"class.llvm::pointer_union_detail::PointerUnionMembers" = type { %"class.llvm::pointer_union_detail::PointerUnionMembers.96" }
%"class.llvm::pointer_union_detail::PointerUnionMembers.96" = type { %"class.llvm::pointer_union_detail::PointerUnionMembers.97" }
%"class.llvm::pointer_union_detail::PointerUnionMembers.97" = type { %"class.llvm::PointerIntPair.98" }
%"class.llvm::PointerIntPair.98" = type { %"struct.llvm::detail::PunnedPointer.99" }
%"struct.llvm::detail::PunnedPointer.99" = type { [8 x i8] }
%"class.llvm::BumpPtrAllocatorImpl" = type { ptr, ptr, %"class.llvm::SmallVector.101", %"class.llvm::SmallVector.106", i64, i64 }
%"class.llvm::SmallVector.101" = type { %"class.llvm::SmallVectorImpl.102", %"struct.llvm::SmallVectorStorage.105" }
%"class.llvm::SmallVectorImpl.102" = type { %"class.llvm::SmallVectorTemplateBase.103" }
%"class.llvm::SmallVectorTemplateBase.103" = type { %"class.llvm::SmallVectorTemplateCommon.104" }
%"class.llvm::SmallVectorTemplateCommon.104" = type { %"class.llvm::SmallVectorBase" }
%"struct.llvm::SmallVectorStorage.105" = type { [32 x i8] }
%"class.llvm::SmallVector.106" = type { %"class.llvm::SmallVectorImpl.107" }
%"class.llvm::SmallVectorImpl.107" = type { %"class.llvm::SmallVectorTemplateBase.108" }
%"class.llvm::SmallVectorTemplateBase.108" = type { %"class.llvm::SmallVectorTemplateCommon.109" }
%"class.llvm::SmallVectorTemplateCommon.109" = type { %"class.llvm::SmallVectorBase" }
%"class.llvm::DenseMap.111" = type <{ ptr, i32, i32, i32, [4 x i8] }>
%"class.std::vector.114" = type { %"struct.std::_Vector_base.115" }
%"struct.std::_Vector_base.115" = type { %"struct.std::_Vector_base<llvm::DIEBlock *, std::allocator<llvm::DIEBlock *>>::_Vector_impl" }
%"struct.std::_Vector_base<llvm::DIEBlock *, std::allocator<llvm::DIEBlock *>>::_Vector_impl" = type { %"struct.std::_Vector_base<llvm::DIEBlock *, std::allocator<llvm::DIEBlock *>>::_Vector_impl_data" }
%"struct.std::_Vector_base<llvm::DIEBlock *, std::allocator<llvm::DIEBlock *>>::_Vector_impl_data" = type { ptr, ptr, ptr }
%"class.std::vector.119" = type { %"struct.std::_Vector_base.120" }
%"struct.std::_Vector_base.120" = type { %"struct.std::_Vector_base<llvm::DIELoc *, std::allocator<llvm::DIELoc *>>::_Vector_impl" }
%"struct.std::_Vector_base<llvm::DIELoc *, std::allocator<llvm::DIELoc *>>::_Vector_impl" = type { %"struct.std::_Vector_base<llvm::DIELoc *, std::allocator<llvm::DIELoc *>>::_Vector_impl_data" }
%"struct.std::_Vector_base<llvm::DIELoc *, std::allocator<llvm::DIELoc *>>::_Vector_impl_data" = type { ptr, ptr, ptr }
%"class.llvm::DenseMap.124" = type <{ ptr, i32, i32, i32, [4 x i8] }>
%"class.llvm::StringRef" = type { ptr, i64 }
%"struct.llvm::Align" = type { i8 }
%"class.llvm::MCSection" = type <{ ptr, ptr, ptr, ptr, %"struct.llvm::Align", [3 x i8], i32, i32, i32, i8, [7 x i8], %"class.llvm::MCDummyFragment", %"class.llvm::SmallVector.589", %"class.llvm::StringRef", i32, [4 x i8] }>
%"class.llvm::MCDummyFragment" = type { %"class.llvm::MCFragment.base", [2 x i8] }
%"class.llvm::MCFragment.base" = type <{ ptr, ptr, i64, i32, i8, i8 }>
%"class.llvm::SmallVector.589" = type { %"class.llvm::SmallVectorImpl.590", %"struct.llvm::SmallVectorStorage.593" }
%"class.llvm::SmallVectorImpl.590" = type { %"class.llvm::SmallVectorTemplateBase.591" }
%"class.llvm::SmallVectorTemplateBase.591" = type { %"class.llvm::SmallVectorTemplateCommon.592" }
%"class.llvm::SmallVectorTemplateCommon.592" = type { %"class.llvm::SmallVectorBase" }
%"struct.llvm::SmallVectorStorage.593" = type { [24 x i8] }

; Function Attrs: mustprogress nounwind uwtable
define linkonce_odr hidden noundef ptr @_ZN4llvm9MCSection14getBeginSymbolEv(ptr noundef nonnull align 8 dereferenceable(148) %0) #0 comdat align 2 {
  %2 = alloca ptr, align 8
  store ptr %0, ptr %2, align 8
  %3 = load ptr, ptr %2, align 8
  %4 = getelementptr inbounds nuw %"class.llvm::MCSection", ptr %3, i32 0, i32 2
  %5 = load ptr, ptr %4, align 8
  ret ptr %5
}

; Function Attrs: mustprogress nounwind uwtable
define linkonce_odr hidden noundef ptr @_ZNK4llvm7DIEUnit10getSectionEv(ptr noundef nonnull align 8 dereferenceable(72) %0) #0 comdat align 2 {
  %2 = alloca ptr, align 8
  store ptr %0, ptr %2, align 8
  %3 = load ptr, ptr %2, align 8
  %4 = getelementptr inbounds nuw %"class.llvm::DIEUnit", ptr %3, i32 0, i32 2
  %5 = load ptr, ptr %4, align 8
  ret ptr %5
}

; Function Attrs: mustprogress nounwind uwtable
define linkonce_odr hidden noundef zeroext i1 @_ZNK4llvm10AsmPrinter37doesDwarfUseRelocationsAcrossSectionsEv(ptr noundef nonnull align 8 dereferenceable(785) %0) #0 comdat align 2 {
  %2 = alloca ptr, align 8
  store ptr %0, ptr %2, align 8
  %3 = load ptr, ptr %2, align 8
  %4 = getelementptr inbounds nuw %"class.llvm::AsmPrinter", ptr %3, i32 0, i32 45
  %5 = load i8, ptr %4, align 8
  %6 = trunc i8 %5 to i1
  ret i1 %6
}

; Function Attrs: mustprogress nounwind uwtable
define dso_local noundef ptr @_ZNK4llvm9DwarfUnit34getCrossSectionRelativeBaseAddressEv(ptr noundef nonnull align 8 dereferenceable(328) %0) unnamed_addr #0 align 2 {
  %2 = alloca ptr, align 8
  %3 = alloca ptr, align 8
  store ptr %0, ptr %3, align 8
  %4 = load ptr, ptr %3, align 8
  %5 = getelementptr inbounds nuw %"class.llvm::DwarfUnit", ptr %4, i32 0, i32 4
  %6 = load ptr, ptr %5, align 8
  %7 = call noundef zeroext i1 @_ZNK4llvm10AsmPrinter37doesDwarfUseRelocationsAcrossSectionsEv(ptr noundef nonnull align 8 dereferenceable(785) %6)
  br i1 %7, label %9, label %8

8:                                                ; preds = %1
  store ptr null, ptr %2, align 8
  br label %18

9:                                                ; preds = %1
  %10 = load ptr, ptr %4, align 8
  %11 = getelementptr inbounds ptr, ptr %10, i64 12
  %12 = load ptr, ptr %11, align 8
  %13 = call noundef zeroext i1 %12(ptr noundef nonnull align 8 dereferenceable(328) %4)
  br i1 %13, label %14, label %15

14:                                               ; preds = %9
  store ptr null, ptr %2, align 8
  br label %18

15:                                               ; preds = %9
  %16 = call noundef ptr @_ZNK4llvm7DIEUnit10getSectionEv(ptr noundef nonnull align 8 dereferenceable(72) %4)
  %17 = call noundef ptr @_ZN4llvm9MCSection14getBeginSymbolEv(ptr noundef nonnull align 8 dereferenceable(148) %16)
  store ptr %17, ptr %2, align 8
  br label %18

18:                                               ; preds = %15, %14, %8
  %19 = load ptr, ptr %2, align 8
  ret ptr %19
}